target datalayout = "e-m:e-p270:32:32-p271:32:32-p272:64:64-i64:64-i128:128-f80:128-n8:16:32:64-S128"
target triple = "x86_64-pc-linux-gnu"

; Function Attrs: inlinehint mustprogress nounwind uwtable
define internal noundef i32 @_ZL7cvAlignii(i32 noundef %0, i32 noundef %1) #7 {
  %3 = alloca i32, align 4
  %4 = alloca i32, align 4
  store i32 %0, ptr %3, align 4, !tbaa !11
  store i32 %1, ptr %4, align 4, !tbaa !11
  %5 = load i32, ptr %3, align 4, !tbaa !11
  %6 = load i32, ptr %4, align 4, !tbaa !11
  %7 = add nsw i32 %5, %6
  %8 = sub nsw i32 %7, 1
  %9 = load i32, ptr %4, align 4, !tbaa !11
  %10 = sub nsw i32 0, %9
  %11 = and i32 %8, %10
  ret i32 %11
}

; Function Attrs: mustprogress uwtable
define hidden noundef i32 @_ZN2cv2fs12calcElemSizeEPKci(ptr noundef %0, i32 noundef %1) #4 {
  %3 = alloca ptr, align 8
  %4 = alloca i32, align 4
  %5 = alloca i32, align 4
  %6 = alloca [128 x i32], align 16
  %7 = alloca i32, align 4
  %8 = alloca i32, align 4
  %9 = alloca i32, align 4
  store ptr %0, ptr %3, align 8, !tbaa !3
  store i32 %1, ptr %4, align 4, !tbaa !11
  call void @llvm.lifetime.start.p0(i64 4, ptr %5) #3
  store i32 0, ptr %5, align 4, !tbaa !11
  call void @llvm.lifetime.start.p0(i64 512, ptr %6) #3
  call void @llvm.lifetime.start.p0(i64 4, ptr %7) #3
  call void @llvm.lifetime.start.p0(i64 4, ptr %8) #3
  call void @llvm.lifetime.start.p0(i64 4, ptr %9) #3
  %10 = load ptr, ptr %3, align 8, !tbaa !3
  %11 = getelementptr inbounds [128 x i32], ptr %6, i64 0, i64 0
  %12 = call noundef i32 @_ZN2cv2fs12decodeFormatEPKcPii(ptr noundef %10, ptr noundef %11, i32 noundef 128)
  store i32 %12, ptr %8, align 4, !tbaa !11
  %13 = load i32, ptr %8, align 4, !tbaa !11
  %14 = mul nsw i32 %13, 2
  store i32 %14, ptr %8, align 4, !tbaa !11
  store i32 0, ptr %7, align 4, !tbaa !11
  %15 = load i32, ptr %4, align 4, !tbaa !11
  store i32 %15, ptr %5, align 4, !tbaa !11
  br label %16

16:                                               ; preds = %50, %2
  %17 = load i32, ptr %7, align 4, !tbaa !11
  %18 = load i32, ptr %8, align 4, !tbaa !11
  %19 = icmp slt i32 %17, %18
  br i1 %19, label %20, label %53

20:                                               ; preds = %16
  %21 = load i32, ptr %7, align 4, !tbaa !11
  %22 = add nsw i32 %21, 1
  %23 = sext i32 %22 to i64
  %24 = getelementptr inbounds [128 x i32], ptr %6, i64 0, i64 %23
  %25 = load i32, ptr %24, align 4, !tbaa !11
  %26 = and i32 %25, 4088
  %27 = ashr i32 %26, 3
  %28 = add nsw i32 %27, 1
  %29 = load i32, ptr %7, align 4, !tbaa !11
  %30 = add nsw i32 %29, 1
  %31 = sext i32 %30 to i64
  %32 = getelementptr inbounds [128 x i32], ptr %6, i64 0, i64 %31
  %33 = load i32, ptr %32, align 4, !tbaa !11
  %34 = and i32 %33, 7
  %35 = mul nsw i32 %34, 4
  %36 = ashr i32 675553809, %35
  %37 = and i32 %36, 15
  %38 = mul nsw i32 %28, %37
  store i32 %38, ptr %9, align 4, !tbaa !11
  %39 = load i32, ptr %5, align 4, !tbaa !11
  %40 = load i32, ptr %9, align 4, !tbaa !11
  %41 = call noundef i32 @_ZL7cvAlignii(i32 noundef %39, i32 noundef %40)
  store i32 %41, ptr %5, align 4, !tbaa !11
  %42 = load i32, ptr %9, align 4, !tbaa !11
  %43 = load i32, ptr %7, align 4, !tbaa !11
  %44 = sext i32 %43 to i64
  %45 = getelementptr inbounds [128 x i32], ptr %6, i64 0, i64 %44
  %46 = load i32, ptr %45, align 4, !tbaa !11
  %47 = mul nsw i32 %42, %46
  %48 = load i32, ptr %5, align 4, !tbaa !11
  %49 = add nsw i32 %48, %47
  store i32 %49, ptr %5, align 4, !tbaa !11
  br label %50

50:                                               ; preds = %20
  %51 = load i32, ptr %7, align 4, !tbaa !11
  %52 = add nsw i32 %51, 2
  store i32 %52, ptr %7, align 4, !tbaa !11
  br label %16, !llvm.loop !36

53:                                               ; preds = %16
  %54 = load i32, ptr %4, align 4, !tbaa !11
  %55 = icmp eq i32 %54, 0
  br i1 %55, label %56, label %72

56:                                               ; preds = %53
  %57 = getelementptr inbounds [128 x i32], ptr %6, i64 0, i64 1
  %58 = load i32, ptr %57, align 4, !tbaa !11
  %59 = and i32 %58, 4088
  %60 = ashr i32 %59, 3
  %61 = add nsw i32 %60, 1
  %62 = getelementptr inbounds [128 x i32], ptr %6, i64 0, i64 1
  %63 = load i32, ptr %62, align 4, !tbaa !11
  %64 = and i32 %63, 7
  %65 = mul nsw i32 %64, 4
  %66 = ashr i32 675553809, %65
  %67 = and i32 %66, 15
  %68 = mul nsw i32 %61, %67
  store i32 %68, ptr %9, align 4, !tbaa !11
  %69 = load i32, ptr %5, align 4, !tbaa !11
  %70 = load i32, ptr %9, align 4, !tbaa !11
  %71 = call noundef i32 @_ZL7cvAlignii(i32 noundef %69, i32 noundef %70)
  store i32 %71, ptr %5, align 4, !tbaa !11
  br label %72

72:                                               ; preds = %56, %53
  %73 = load i32, ptr %5, align 4, !tbaa !11
  call void @llvm.lifetime.end.p0(i64 4, ptr %9) #3
  call void @llvm.lifetime.end.p0(i64 4, ptr %8) #3
  call void @llvm.lifetime.end.p0(i64 4, ptr %7) #3
  call void @llvm.lifetime.end.p0(i64 512, ptr %6) #3
  call void @llvm.lifetime.end.p0(i64 4, ptr %5) #3
  ret i32 %73
}