; Function Attrs: mustprogress uwtable
define hidden noundef i32 @_ZN2cv2fs12calcElemSizeEPKci(ptr noundef %0, i32 noundef %1) local_unnamed_addr #13 {
  %3 = alloca [128 x i32], align 16
  call void @llvm.lifetime.start.p0(i64 512, ptr nonnull %3) #41
  %4 = call noundef i32 @_ZN2cv2fs12decodeFormatEPKcPii(ptr noundef %0, ptr noundef nonnull %3, i32 noundef 128)
  %5 = icmp sgt i32 %4, 0
  br i1 %5, label %.lr.ph.preheader, label %._crit_edge

.lr.ph.preheader:                                 ; preds = %2
  %6 = shl nuw nsw i32 %4, 1
  %7 = zext nneg i32 %6 to i64
  br label %.lr.ph

.lr.ph:                                           ; preds = %.lr.ph.preheader, %.lr.ph
  %indvars.iv = phi i64 [ 0, %.lr.ph.preheader ], [ %indvars.iv.next, %.lr.ph ]
  %.01617 = phi i32 [ %1, %.lr.ph.preheader ], [ %26, %.lr.ph ]
  %8 = or disjoint i64 %indvars.iv, 1
  %9 = getelementptr inbounds nuw [128 x i32], ptr %3, i64 0, i64 %8
  %10 = load i32, ptr %9, align 4, !tbaa !19
  %11 = lshr i32 %10, 3
  %12 = and i32 %11, 511
  %13 = add nuw nsw i32 %12, 1
  %14 = shl i32 %10, 2
  %15 = and i32 %14, 28
  %16 = lshr i32 675553809, %15
  %17 = and i32 %16, 15
  %18 = mul nuw nsw i32 %17, %13
  %19 = add i32 %.01617, -1
  %20 = add i32 %19, %18
  %21 = sub nsw i32 0, %18
  %22 = and i32 %20, %21
  %23 = getelementptr inbounds nuw [128 x i32], ptr %3, i64 0, i64 %indvars.iv
  %24 = load i32, ptr %23, align 8, !tbaa !19
  %25 = mul nsw i32 %18, %24
  %26 = add nsw i32 %22, %25
  %indvars.iv.next = add nuw nsw i64 %indvars.iv, 2
  %27 = icmp samesign ult i64 %indvars.iv.next, %7
  br i1 %27, label %.lr.ph, label %._crit_edge, !llvm.loop !23

._crit_edge:                                      ; preds = %.lr.ph, %2
  %.016.lcssa = phi i32 [ %1, %2 ], [ %26, %.lr.ph ]
  %28 = icmp eq i32 %1, 0
  br i1 %28, label %29, label %44

29:                                               ; preds = %._crit_edge
  %30 = getelementptr inbounds nuw i8, ptr %3, i64 4
  %31 = load i32, ptr %30, align 4, !tbaa !19
  %32 = lshr i32 %31, 3
  %33 = and i32 %32, 511
  %34 = add nuw nsw i32 %33, 1
  %35 = shl i32 %31, 2
  %36 = and i32 %35, 28
  %37 = lshr i32 675553809, %36
  %38 = and i32 %37, 15
  %39 = mul nuw nsw i32 %38, %34
  %40 = add i32 %.016.lcssa, -1
  %41 = add i32 %40, %39
  %42 = sub nsw i32 0, %39
  %43 = and i32 %41, %42
  br label %44

44:                                               ; preds = %29, %._crit_edge
  %.1 = phi i32 [ %43, %29 ], [ %.016.lcssa, %._crit_edge ]
  call void @llvm.lifetime.end.p0(i64 512, ptr nonnull %3) #41
  ret i32 %.1
}